target datalayout = "e-m:e-p270:32:32-p271:32:32-p272:64:64-i64:64-i128:128-f80:128-n8:16:32:64-S128"
target triple = "x86_64-pc-linux-gnu"

%struct.redisServer = type { i32, i64, ptr, ptr, ptr, i32, i32, i32, i32, i32, ptr, ptr, ptr, ptr, ptr, i32, i32, i32, i32, i64, i32, i32, i32, i32, ptr, i32, i32, [41 x i8], i32, i64, i32, i32, i32, ptr, ptr, i32, i32, i64, ptr, ptr, ptr, ptr, [2 x i32], i32, i32, i32, i32, i32, i32, [16 x ptr], i32, ptr, ptr, i32, [8 x %struct.connListener], i32, %struct.connListener, ptr, ptr, ptr, ptr, ptr, ptr, ptr, ptr, ptr, ptr, i32, ptr, i32, ptr, [3 x %struct.pause_event], [256 x i8], ptr, i64, i32, i32, [128 x i32], i32, i32, i64, i32, i32, i32, i32, i32, i64, i64, i64, i64, i64, i64, i64, i64, i64, i64, double, i64, i64, i64, i64, i64, i64, i64, i64, i64, i64, i64, i64, i64, i64, i64, i64, i64, i64, i64, i64, i64, double, i64, i64, i64, i64, i64, ptr, i64, i64, i64, %struct.malloc_stats, i64, i64, i64, i64, i64, i64, i64, i64, i64, i64, i64, i64, double, [4 x i64], i64, i64, i64, i64, [128 x i64], [128 x i64], i64, i64, [7 x %struct.anon], i64, i64, i64, i64, i64, i64, [4 x %struct.durationStats], i32, i32, i32, i32, i32, i32, i32, i32, i32, i32, i32, i32, i64, i32, i32, i32, i32, i64, i64, i32, i32, i32, i32, i32, ptr, [3 x %struct.clientBufferLimitsConfig], i32, i32, i32, ptr, i32, i32, i32, i32, i32, i32, ptr, ptr, i32, i32, i64, i64, i64, i64, i64, i32, i32, ptr, i32, i32, i64, i64, i64, i64, i64, i32, i32, i64, i32, i32, i32, i32, i32, i32, i32, i32, ptr, i32, i64, i64, i64, i64, i32, ptr, i32, ptr, i32, i32, i32, i64, i64, i64, i64, i32, i32, i32, i32, i32, i32, ptr, i32, i32, ptr, i32, i32, i32, [2 x i32], i32, %struct.redisOpArray, i32, ptr, i32, ptr, i32, i32, i32, i32, i32, i32, i32, [41 x i8], [41 x i8], i64, i64, i64, i64, i32, i32, ptr, i64, i64, %struct.replDataBuf, i64, i64, i32, i32, i32, i32, i32, i32, i32, i32, i32, i64, ptr, i64, ptr, ptr, ptr, i32, i32, ptr, ptr, i32, i32, i32, i64, i64, i64, i64, ptr, ptr, i32, ptr, i64, i32, i32, i32, i64, i32, i32, i32, i32, ptr, i32, i32, [41 x i8], i64, i32, ptr, i32, i32, i64, i64, i32, i32, i32, i32, i32, i64, [3 x i32], i32, i32, i32, [10 x i32], ptr, ptr, i32, i64, ptr, ptr, i32, i32, i32, i32, i64, i64, i64, i64, i64, i64, i64, i64, i64, i64, i32, i32, i64, i64, i32, i64, i64, i64, i64, i64, ptr, ptr, i32, ptr, i32, i32, i32, i32, i64, i64, ptr, ptr, i32, i32, i32, i32, i32, ptr, ptr, ptr, i32, i32, i32, i32, i32, i32, i32, i64, i32, i32, i64, i32, i32, i32, i32, i32, i32, i32, i64, ptr, ptr, i64, ptr, i32, %struct.aclInfo, i32, i64, i32, i32, i32, %struct.redisTLSContextConfig, ptr, ptr, ptr, ptr, ptr, i64, i32, ptr, i32, i32, i32, i64, i32, ptr }
%struct.connListener = type { [16 x i32], i32, ptr, i32, i32, ptr, ptr }
%struct.pause_event = type { i32, i64 }
%struct.malloc_stats = type { i64, i64, i64, i64, i64, i64, i64, i64, i64, i64, i64 }
%struct.anon = type { i64, i64, [16 x i64], i32 }
%struct.durationStats = type { i64, i64, i64 }
%struct.clientBufferLimitsConfig = type { i64, i64, i64 }
%struct.redisOpArray = type { ptr, i32, i32 }
%struct.replDataBuf = type { ptr, i64, i64, i64, i64 }
%struct.aclInfo = type { i64, i64, i64, i64 }
%struct.redisTLSContextConfig = type { ptr, ptr, ptr, ptr, ptr, ptr, ptr, ptr, ptr, ptr, ptr, ptr, i32, i32, i32, i32 }
%struct.redisDb = type { ptr, ptr, ptr, ptr, ptr, ptr, ptr, i32, i64, i64, ptr }
%struct.redisObject = type { i32, i32, ptr }
%struct.client = type { i64, i64, ptr, i8, i8, i8, i8, i32, ptr, ptr, ptr, ptr, ptr, i64, i64, i32, ptr, i32, i32, ptr, i64, ptr, ptr, ptr, ptr, ptr, i32, i32, i64, ptr, i64, ptr, i64, i64, i64, i32, ptr, i64, i64, i32, i32, i32, i32, i64, i64, ptr, i64, i64, i64, i64, i64, i64, i64, i64, [41 x i8], i32, ptr, i32, i32, i64, %struct.multiState, %struct.blockingState, i64, ptr, ptr, ptr, ptr, ptr, ptr, ptr, ptr, ptr, ptr, ptr, ptr, ptr, ptr, i64, ptr, i64, i32, ptr, ptr, ptr, i64, %struct.listNode, i64, i64, i32, i64, ptr }
%struct.multiState = type { ptr, i32, i32, i32, i64, i32 }
%struct.blockingState = type { i32, i64, i32, ptr, i32, i32, i64, ptr, ptr, i64 }
%struct.listNode = type { ptr, ptr, ptr }

@server = external global %struct.redisServer, align 8

; Function Attrs: nounwind uwtable
define dso_local i32 @getKeySlot(ptr noundef %0) #0 {
  %2 = alloca i32, align 4
  %3 = alloca ptr, align 8
  store ptr %0, ptr %3, align 8, !tbaa !78
  %4 = load ptr, ptr getelementptr inbounds nuw (%struct.redisServer, ptr @server, i32 0, i32 63), align 8, !tbaa !53
  %5 = icmp ne ptr %4, null
  br i1 %5, label %6, label %21

6:                                                ; preds = %1
  %7 = load ptr, ptr getelementptr inbounds nuw (%struct.redisServer, ptr @server, i32 0, i32 63), align 8, !tbaa !53
  %8 = getelementptr inbounds nuw %struct.client, ptr %7, i32 0, i32 35
  %9 = load i32, ptr %8, align 8, !tbaa !86
  %10 = icmp sge i32 %9, 0
  br i1 %10, label %11, label %21

11:                                               ; preds = %6
  %12 = load ptr, ptr getelementptr inbounds nuw (%struct.redisServer, ptr @server, i32 0, i32 63), align 8, !tbaa !53
  %13 = getelementptr inbounds nuw %struct.client, ptr %12, i32 0, i32 1
  %14 = load i64, ptr %13, align 8, !tbaa !54
  %15 = and i64 %14, 536870912
  %16 = icmp ne i64 %15, 0
  br i1 %16, label %17, label %21

17:                                               ; preds = %11
  %18 = load ptr, ptr getelementptr inbounds nuw (%struct.redisServer, ptr @server, i32 0, i32 63), align 8, !tbaa !53
  %19 = getelementptr inbounds nuw %struct.client, ptr %18, i32 0, i32 35
  %20 = load i32, ptr %19, align 8, !tbaa !86
  store i32 %20, ptr %2, align 4
  br label %24

21:                                               ; preds = %11, %6, %1
  %22 = load ptr, ptr %3, align 8, !tbaa !78
  %23 = call i32 @calculateKeySlot(ptr noundef %22)
  store i32 %23, ptr %2, align 4
  br label %24

24:                                               ; preds = %21, %17
  %25 = load i32, ptr %2, align 4
  ret i32 %25
}

; Function Attrs: nounwind uwtable
define internal ptr @dbFindGeneric(ptr noundef %0, ptr noundef %1) #0 {
  %3 = alloca ptr, align 8
  %4 = alloca ptr, align 8
  store ptr %0, ptr %3, align 8, !tbaa !194
  store ptr %1, ptr %4, align 8, !tbaa !22
  %5 = load ptr, ptr %3, align 8, !tbaa !194
  %6 = load ptr, ptr %4, align 8, !tbaa !22
  %7 = call i32 @getKeySlot(ptr noundef %6)
  %8 = load ptr, ptr %4, align 8, !tbaa !22
  %9 = call ptr @kvstoreDictFind(ptr noundef %5, i32 noundef %7, ptr noundef %8)
  ret ptr %9
}

; Function Attrs: nounwind uwtable
define dso_local ptr @dbFindExpires(ptr noundef %0, ptr noundef %1) #0 {
  %3 = alloca ptr, align 8
  %4 = alloca ptr, align 8
  store ptr %0, ptr %3, align 8, !tbaa !12
  store ptr %1, ptr %4, align 8, !tbaa !22
  %5 = load ptr, ptr %3, align 8, !tbaa !12
  %6 = getelementptr inbounds nuw %struct.redisDb, ptr %5, i32 0, i32 1
  %7 = load ptr, ptr %6, align 8, !tbaa !88
  %8 = load ptr, ptr %4, align 8, !tbaa !22
  %9 = call ptr @dbFindGeneric(ptr noundef %7, ptr noundef %8)
  ret ptr %9
}

; Function Attrs: nounwind uwtable
define dso_local i64 @getExpire(ptr noundef %0, ptr noundef %1) #0 {
  %3 = alloca i64, align 8
  %4 = alloca ptr, align 8
  %5 = alloca ptr, align 8
  %6 = alloca ptr, align 8
  %7 = alloca i32, align 4
  store ptr %0, ptr %4, align 8, !tbaa !12
  store ptr %1, ptr %5, align 8, !tbaa !5
  call void @llvm.lifetime.start.p0(i64 8, ptr %6) #15
  %8 = load ptr, ptr %4, align 8, !tbaa !12
  %9 = load ptr, ptr %5, align 8, !tbaa !5
  %10 = getelementptr inbounds nuw %struct.redisObject, ptr %9, i32 0, i32 2
  %11 = load ptr, ptr %10, align 8, !tbaa !25
  %12 = call ptr @dbFindExpires(ptr noundef %8, ptr noundef %11)
  store ptr %12, ptr %6, align 8, !tbaa !27
  %13 = icmp eq ptr %12, null
  br i1 %13, label %14, label %15

14:                                               ; preds = %2
  store i64 -1, ptr %3, align 8
  store i32 1, ptr %7, align 4
  br label %18

15:                                               ; preds = %2
  %16 = load ptr, ptr %6, align 8, !tbaa !27
  %17 = call i64 @dictGetSignedIntegerVal(ptr noundef %16)
  store i64 %17, ptr %3, align 8
  store i32 1, ptr %7, align 4
  br label %18

18:                                               ; preds = %15, %14
  call void @llvm.lifetime.end.p0(i64 8, ptr %6) #15
  %19 = load i64, ptr %3, align 8
  ret i64 %19
}

; Function Attrs: nounwind uwtable
define dso_local void @deleteExpiredKeyAndPropagate(ptr noundef %0, ptr noundef %1) #0 {
  %3 = alloca ptr, align 8
  %4 = alloca ptr, align 8
  store ptr %0, ptr %3, align 8, !tbaa !12
  store ptr %1, ptr %4, align 8, !tbaa !5
  %5 = load ptr, ptr %3, align 8, !tbaa !12
  %6 = load ptr, ptr %4, align 8, !tbaa !5
  call void @deleteKeyAndPropagate(ptr noundef %5, ptr noundef %6, i32 noundef 256, ptr noundef null)
  ret void
}

; Function Attrs: nounwind uwtable
define dso_local i32 @keyIsExpired(ptr noundef %0, ptr noundef %1) #0 {
  %3 = alloca i32, align 4
  %4 = alloca ptr, align 8
  %5 = alloca ptr, align 8
  %6 = alloca i64, align 8
  %7 = alloca i64, align 8
  %8 = alloca i32, align 4
  store ptr %0, ptr %4, align 8, !tbaa !12
  store ptr %1, ptr %5, align 8, !tbaa !5
  %9 = load volatile i32, ptr getelementptr inbounds nuw (%struct.redisServer, ptr @server, i32 0, i32 84), align 4, !tbaa !138
  %10 = icmp ne i32 %9, 0
  br i1 %10, label %11, label %12

11:                                               ; preds = %2
  store i32 0, ptr %3, align 4
  br label %26

12:                                               ; preds = %2
  call void @llvm.lifetime.start.p0(i64 8, ptr %6) #15
  %13 = load ptr, ptr %4, align 8, !tbaa !12
  %14 = load ptr, ptr %5, align 8, !tbaa !5
  %15 = call i64 @getExpire(ptr noundef %13, ptr noundef %14)
  store i64 %15, ptr %6, align 8, !tbaa !90
  call void @llvm.lifetime.start.p0(i64 8, ptr %7) #15
  %16 = load i64, ptr %6, align 8, !tbaa !90
  %17 = icmp slt i64 %16, 0
  br i1 %17, label %18, label %19

18:                                               ; preds = %12
  store i32 0, ptr %3, align 4
  store i32 1, ptr %8, align 4
  br label %25

19:                                               ; preds = %12
  %20 = call i64 @commandTimeSnapshot()
  store i64 %20, ptr %7, align 8, !tbaa !90
  %21 = load i64, ptr %7, align 8, !tbaa !90
  %22 = load i64, ptr %6, align 8, !tbaa !90
  %23 = icmp sgt i64 %21, %22
  %24 = zext i1 %23 to i32
  store i32 %24, ptr %3, align 4
  store i32 1, ptr %8, align 4
  br label %25

25:                                               ; preds = %19, %18
  call void @llvm.lifetime.end.p0(i64 8, ptr %7) #15
  call void @llvm.lifetime.end.p0(i64 8, ptr %6) #15
  br label %26

26:                                               ; preds = %25, %11
  %27 = load i32, ptr %3, align 4
  ret i32 %27
}

; Function Attrs: nounwind uwtable
define dso_local i32 @expireIfNeeded(ptr noundef %0, ptr noundef %1, i32 noundef %2) #0 {
  %4 = alloca i32, align 4
  %5 = alloca ptr, align 8
  %6 = alloca ptr, align 8
  %7 = alloca i32, align 4
  store ptr %0, ptr %5, align 8, !tbaa !12
  store ptr %1, ptr %6, align 8, !tbaa !5
  store i32 %2, ptr %7, align 4, !tbaa !14
  %8 = load i32, ptr getelementptr inbounds nuw (%struct.redisServer, ptr @server, i32 0, i32 165), align 8, !tbaa !75
  %9 = icmp ne i32 %8, 0
  br i1 %9, label %19, label %10

10:                                               ; preds = %3
  %11 = load i32, ptr %7, align 4, !tbaa !14
  %12 = and i32 %11, 4
  %13 = icmp ne i32 %12, 0
  br i1 %13, label %19, label %14

14:                                               ; preds = %10
  %15 = load ptr, ptr %5, align 8, !tbaa !12
  %16 = load ptr, ptr %6, align 8, !tbaa !5
  %17 = call i32 @keyIsExpired(ptr noundef %15, ptr noundef %16)
  %18 = icmp ne i32 %17, 0
  br i1 %18, label %20, label %19

19:                                               ; preds = %14, %10, %3
  store i32 0, ptr %4, align 4
  br label %51

20:                                               ; preds = %14
  %21 = load ptr, ptr getelementptr inbounds nuw (%struct.redisServer, ptr @server, i32 0, i32 297), align 8, !tbaa !29
  %22 = icmp ne ptr %21, null
  br i1 %22, label %23, label %39

23:                                               ; preds = %20
  %24 = load ptr, ptr getelementptr inbounds nuw (%struct.redisServer, ptr @server, i32 0, i32 63), align 8, !tbaa !53
  %25 = icmp ne ptr %24, null
  br i1 %25, label %26, label %33

26:                                               ; preds = %23
  %27 = load ptr, ptr getelementptr inbounds nuw (%struct.redisServer, ptr @server, i32 0, i32 63), align 8, !tbaa !53
  %28 = getelementptr inbounds nuw %struct.client, ptr %27, i32 0, i32 1
  %29 = load i64, ptr %28, align 8, !tbaa !54
  %30 = and i64 %29, 2
  %31 = icmp ne i64 %30, 0
  br i1 %31, label %32, label %33

32:                                               ; preds = %26
  store i32 0, ptr %4, align 4
  br label %51

33:                                               ; preds = %26, %23
  %34 = load i32, ptr %7, align 4, !tbaa !14
  %35 = and i32 %34, 1
  %36 = icmp ne i32 %35, 0
  br i1 %36, label %38, label %37

37:                                               ; preds = %33
  store i32 1, ptr %4, align 4
  br label %51

38:                                               ; preds = %33
  br label %39

39:                                               ; preds = %38, %20
  %40 = load i32, ptr %7, align 4, !tbaa !14
  %41 = and i32 %40, 2
  %42 = icmp ne i32 %41, 0
  br i1 %42, label %43, label %44

43:                                               ; preds = %39
  store i32 1, ptr %4, align 4
  br label %51

44:                                               ; preds = %39
  %45 = call i32 @isPausedActionsWithUpdate(i32 noundef 4)
  %46 = icmp ne i32 %45, 0
  br i1 %46, label %47, label %48

47:                                               ; preds = %44
  store i32 1, ptr %4, align 4
  br label %51

48:                                               ; preds = %44
  %49 = load ptr, ptr %5, align 8, !tbaa !12
  %50 = load ptr, ptr %6, align 8, !tbaa !5
  call void @deleteExpiredKeyAndPropagate(ptr noundef %49, ptr noundef %50)
  store i32 2, ptr %4, align 4
  br label %51

51:                                               ; preds = %48, %47, %43, %37, %32, %19
  %52 = load i32, ptr %4, align 4
  ret i32 %52
}