; Function Attrs: nounwind uwtable
define dso_local range(i32 0, 3) i32 @expireIfNeeded(ptr noundef %0, ptr noundef %1, i32 noundef %2) local_unnamed_addr #0 {
  %4 = load i32, ptr getelementptr inbounds nuw (i8, ptr @server, i64 6312), align 8, !tbaa !70
  %5 = and i32 %2, 4
  %6 = or i32 %4, %5
  %or.cond = icmp eq i32 %6, 0
  br i1 %or.cond, label %7, label %keyIsExpired.exit.thread

7:                                                ; preds = %3
  %8 = load volatile i32, ptr getelementptr inbounds nuw (i8, ptr @server, i64 2412), align 4, !tbaa !71
  %.not.i = icmp eq i32 %8, 0
  br i1 %.not.i, label %9, label %keyIsExpired.exit.thread

9:                                                ; preds = %7
  %10 = getelementptr inbounds nuw i8, ptr %1, i64 8
  %11 = load ptr, ptr %10, align 8, !tbaa !18
  %12 = getelementptr inbounds nuw i8, ptr %0, i64 8
  %13 = load ptr, ptr %12, align 8, !tbaa !72
  %14 = load ptr, ptr getelementptr inbounds nuw (i8, ptr @server, i64 1480), align 8, !tbaa !20
  %.not.i.i.i.i.i = icmp eq ptr %14, null
  br i1 %.not.i.i.i.i.i, label %23, label %15

15:                                               ; preds = %9
  %16 = getelementptr inbounds nuw i8, ptr %14, i64 232
  %17 = load i32, ptr %16, align 8, !tbaa !44
  %18 = icmp sgt i32 %17, -1
  br i1 %18, label %19, label %23

19:                                               ; preds = %15
  %20 = getelementptr inbounds nuw i8, ptr %14, i64 8
  %21 = load i64, ptr %20, align 8, !tbaa !55
  %22 = and i64 %21, 536870912
  %.not3.i.i.i.i.i = icmp eq i64 %22, 0
  br i1 %.not3.i.i.i.i.i, label %23, label %dbFindExpires.exit.i.i

23:                                               ; preds = %19, %15, %9
  %24 = tail call i32 @calculateKeySlot(ptr noundef %11)
  br label %dbFindExpires.exit.i.i

dbFindExpires.exit.i.i:                           ; preds = %23, %19
  %.0.i.i.i.i.i = phi i32 [ %24, %23 ], [ %17, %19 ]
  %25 = tail call ptr @kvstoreDictFind(ptr noundef %13, i32 noundef %.0.i.i.i.i.i, ptr noundef %11) #20
  %26 = icmp eq ptr %25, null
  br i1 %26, label %keyIsExpired.exit.thread, label %getExpire.exit.i

getExpire.exit.i:                                 ; preds = %dbFindExpires.exit.i.i
  %27 = tail call i64 @dictGetSignedIntegerVal(ptr noundef nonnull %25) #20
  %28 = icmp slt i64 %27, 0
  br i1 %28, label %keyIsExpired.exit.thread, label %keyIsExpired.exit

keyIsExpired.exit:                                ; preds = %getExpire.exit.i
  %29 = tail call i64 @commandTimeSnapshot() #20
  %.not = icmp sgt i64 %29, %27
  br i1 %.not, label %30, label %keyIsExpired.exit.thread

30:                                               ; preds = %keyIsExpired.exit
  %31 = load ptr, ptr getelementptr inbounds nuw (i8, ptr @server, i64 7264), align 8, !tbaa !56
  %.not10 = icmp eq ptr %31, null
  br i1 %.not10, label %40, label %32

32:                                               ; preds = %30
  %33 = load ptr, ptr getelementptr inbounds nuw (i8, ptr @server, i64 1480), align 8, !tbaa !20
  %.not11 = icmp eq ptr %33, null
  br i1 %.not11, label %38, label %34

34:                                               ; preds = %32
  %35 = getelementptr inbounds nuw i8, ptr %33, i64 8
  %36 = load i64, ptr %35, align 8, !tbaa !55
  %37 = and i64 %36, 2
  %.not12 = icmp eq i64 %37, 0
  br i1 %.not12, label %38, label %keyIsExpired.exit.thread

38:                                               ; preds = %34, %32
  %39 = and i32 %2, 3
  %or.cond16 = icmp eq i32 %39, 1
  br i1 %or.cond16, label %41, label %keyIsExpired.exit.thread

40:                                               ; preds = %30
  %.old = and i32 %2, 2
  %.not14.old = icmp eq i32 %.old, 0
  br i1 %.not14.old, label %41, label %keyIsExpired.exit.thread

41:                                               ; preds = %38, %40
  %42 = tail call i32 @isPausedActionsWithUpdate(i32 noundef 4) #20
  %.not15 = icmp eq i32 %42, 0
  br i1 %.not15, label %43, label %keyIsExpired.exit.thread

43:                                               ; preds = %41
  tail call fastcc void @deleteKeyAndPropagate(ptr noundef nonnull %0, ptr noundef nonnull %1, i32 noundef 256, ptr noundef null)
  br label %keyIsExpired.exit.thread

keyIsExpired.exit.thread:                         ; preds = %dbFindExpires.exit.i.i, %getExpire.exit.i, %7, %41, %40, %38, %34, %3, %keyIsExpired.exit, %43
  %.0 = phi i32 [ 2, %43 ], [ 0, %keyIsExpired.exit ], [ 0, %3 ], [ 0, %34 ], [ 1, %38 ], [ 1, %40 ], [ 1, %41 ], [ 0, %7 ], [ 0, %getExpire.exit.i ], [ 0, %dbFindExpires.exit.i.i ]
  ret i32 %.0
}